target datalayout = "e-m:e-p270:32:32-p271:32:32-p272:64:64-i64:64-i128:128-f80:128-n8:16:32:64-S128"
target triple = "x86_64-pc-linux-gnu"

%struct.dt_pthread_mutex_t = type { %union.pthread_mutex_t }
%union.pthread_mutex_t = type { %struct.__pthread_mutex_s }
%struct.__pthread_mutex_s = type { i32, i32, i32, i32, i32, i16, i16, %struct.__pthread_internal_list }
%struct.__pthread_internal_list = type { ptr, ptr }
%struct.dt_mipmap_cache_t = type { [11 x i32], [11 x i32], [11 x i64], %struct.dt_mipmap_cache_one_t, %struct.dt_mipmap_cache_one_t, %struct.dt_mipmap_cache_one_t, [4096 x i8] }
%struct.dt_mipmap_cache_one_t = type { %struct.dt_cache_t, i64, i64, i64, i64, i64 }
%struct.dt_cache_t = type { %struct.dt_pthread_mutex_t, i64, i64, i64, ptr, ptr, ptr, ptr, ptr, ptr }

; Function Attrs: nounwind uwtable
define i32 @dt_mipmap_cache_get_matching_size(ptr noundef %0, i32 noundef %1, i32 noundef %2) #0 {
  %4 = alloca ptr, align 8
  %5 = alloca i32, align 4
  %6 = alloca i32, align 4
  %7 = alloca i32, align 4
  %8 = alloca i32, align 4
  %9 = alloca i32, align 4
  store ptr %0, ptr %4, align 8, !tbaa !50
  store i32 %1, ptr %5, align 4, !tbaa !43
  store i32 %2, ptr %6, align 4, !tbaa !43
  call void @llvm.lifetime.start.p0(i64 4, ptr %7) #12
  store i32 11, ptr %7, align 4, !tbaa !43
  call void @llvm.lifetime.start.p0(i64 4, ptr %8) #12
  store i32 0, ptr %8, align 4, !tbaa !43
  br label %10

10:                                               ; preds = %35, %3
  %11 = load i32, ptr %8, align 4, !tbaa !43
  %12 = icmp slt i32 %11, 9
  br i1 %12, label %14, label %13

13:                                               ; preds = %10
  store i32 2, ptr %9, align 4
  br label %38

14:                                               ; preds = %10
  %15 = load i32, ptr %8, align 4, !tbaa !43
  store i32 %15, ptr %7, align 4, !tbaa !43
  %16 = load ptr, ptr %4, align 8, !tbaa !50
  %17 = getelementptr inbounds nuw %struct.dt_mipmap_cache_t, ptr %16, i32 0, i32 0
  %18 = load i32, ptr %8, align 4, !tbaa !43
  %19 = sext i32 %18 to i64
  %20 = getelementptr inbounds [11 x i32], ptr %17, i64 0, i64 %19
  %21 = load i32, ptr %20, align 4, !tbaa !43
  %22 = load i32, ptr %5, align 4, !tbaa !43
  %23 = icmp uge i32 %21, %22
  br i1 %23, label %24, label %34

24:                                               ; preds = %14
  %25 = load ptr, ptr %4, align 8, !tbaa !50
  %26 = getelementptr inbounds nuw %struct.dt_mipmap_cache_t, ptr %25, i32 0, i32 1
  %27 = load i32, ptr %8, align 4, !tbaa !43
  %28 = sext i32 %27 to i64
  %29 = getelementptr inbounds [11 x i32], ptr %26, i64 0, i64 %28
  %30 = load i32, ptr %29, align 4, !tbaa !43
  %31 = load i32, ptr %6, align 4, !tbaa !43
  %32 = icmp uge i32 %30, %31
  br i1 %32, label %33, label %34

33:                                               ; preds = %24
  store i32 2, ptr %9, align 4
  br label %38

34:                                               ; preds = %24, %14
  br label %35

35:                                               ; preds = %34
  %36 = load i32, ptr %8, align 4, !tbaa !43
  %37 = add nsw i32 %36, 1
  store i32 %37, ptr %8, align 4, !tbaa !43
  br label %10

38:                                               ; preds = %33, %13
  call void @llvm.lifetime.end.p0(i64 4, ptr %8) #12
  br label %39

39:                                               ; preds = %38
  %40 = load i32, ptr %7, align 4, !tbaa !43
  store i32 1, ptr %9, align 4
  call void @llvm.lifetime.end.p0(i64 4, ptr %7) #12
  ret i32 %40
}