; Function Attrs: nofree norecurse nosync nounwind memory(argmem: read) uwtable
define range(i32 0, 12) i32 @dt_mipmap_cache_get_matching_size(ptr noundef readonly captures(none) %0, i32 noundef %1, i32 noundef %2) local_unnamed_addr #8 {
  %4 = getelementptr inbounds nuw i8, ptr %0, i64 44
  br label %5

5:                                                ; preds = %.backedge, %3
  %.011 = phi i32 [ 0, %3 ], [ %.011.be, %.backedge ]
  %6 = zext nneg i32 %.011 to i64
  %7 = getelementptr inbounds nuw [11 x i32], ptr %0, i64 0, i64 %6
  %8 = load i32, ptr %7, align 4, !tbaa !77
  %.not = icmp ult i32 %8, %1
  br i1 %.not, label %13, label %9

9:                                                ; preds = %5
  %10 = getelementptr inbounds nuw [11 x i32], ptr %4, i64 0, i64 %6
  %11 = load i32, ptr %10, align 4, !tbaa !77
  %.not10 = icmp ult i32 %11, %2
  %12 = icmp samesign ult i32 %.011, 8
  %or.cond = and i1 %.not10, %12
  br i1 %or.cond, label %.backedge, label %14

13:                                               ; preds = %5
  %.old12 = icmp samesign ult i32 %.011, 8
  br i1 %.old12, label %.backedge, label %14

.backedge:                                        ; preds = %13, %9
  %.011.be = add nuw nsw i32 %.011, 1
  br label %5

14:                                               ; preds = %9, %13
  ret i32 %.011
}